target datalayout = "e-m:e-p270:32:32-p271:32:32-p272:64:64-i64:64-i128:128-f80:128-n8:16:32:64-S128"
target triple = "x86_64-pc-linux-gnu"

%struct.LLVMIntrinsics = type { i32, i32, i32, i32, i32, i32, i32, i32, i32, i32, i32, i32, i32, i32, i32, i32, i32, i32, i32, i32, i32, i32, i32, i32, i32, i32, i32, i32, i32, i32, i32, i32, i32, i32, i32, i32, i32, i32, i32, i32, i32, i32, i32, i32, i32, i32, i32, i32, i32, i32, i32, i32, i32, i32, i32, i32, i32, i32, i32, i32, i32, i32, i32, i32, i32, i32, i32, i32, i32, i32, i32, i32, i32, i32, i32, i32, i32, i32, i32, i32, i32, i32, i32, i32, i32, i32, i32, i32, i32, i32, i32, i32, i32, i32 }
%struct.BEValue = type { i8, i32, ptr, ptr, ptr }
%struct.GenContext_ = type { i8, ptr, ptr, ptr, ptr, ptr, ptr, ptr, ptr, ptr, ptr, ptr, ptr, ptr, ptr, ptr, ptr, ptr, ptr, ptr, ptr, ptr, ptr, ptr, ptr, ptr, ptr, ptr, ptr, ptr, ptr, ptr, ptr, %struct.anon.85, i32, i32, %struct.DebugContext, ptr, ptr, ptr, %struct.BEValue, i8, %union.SourceSpan, ptr, ptr, ptr, ptr }
%struct.anon.85 = type { ptr, ptr, ptr }
%struct.DebugContext = type { i16, ptr, ptr, %struct.DebugFile_, ptr, ptr, ptr, ptr }
%struct.DebugFile_ = type { i16, ptr }
%union.SourceSpan = type { i64 }

@intrinsic_id = external global %struct.LLVMIntrinsics, align 4
@.str.3 = private unnamed_addr constant [1 x i8] zeroinitializer, align 1

; Function Attrs: nounwind uwtable
define dso_local ptr @llvm_emit_call_intrinsic(ptr noundef %0, i32 noundef %1, ptr noundef %2, i32 noundef %3, ptr noundef %4, i32 noundef %5) #0 {
  %7 = alloca ptr, align 8
  %8 = alloca i32, align 4
  %9 = alloca ptr, align 8
  %10 = alloca i32, align 4
  %11 = alloca ptr, align 8
  %12 = alloca i32, align 4
  %13 = alloca ptr, align 8
  %14 = alloca ptr, align 8
  store ptr %0, ptr %7, align 8
  store i32 %1, ptr %8, align 4
  store ptr %2, ptr %9, align 8
  store i32 %3, ptr %10, align 4
  store ptr %4, ptr %11, align 8
  store i32 %5, ptr %12, align 4
  %15 = load ptr, ptr %7, align 8
  %16 = getelementptr inbounds %struct.GenContext_, ptr %15, i32 0, i32 1
  %17 = load ptr, ptr %16, align 8
  %18 = load i32, ptr %8, align 4
  %19 = load ptr, ptr %9, align 8
  %20 = load i32, ptr %10, align 4
  %21 = zext i32 %20 to i64
  %22 = call ptr @LLVMGetIntrinsicDeclaration(ptr noundef %17, i32 noundef %18, ptr noundef %19, i64 noundef %21)
  store ptr %22, ptr %13, align 8
  %23 = load ptr, ptr %7, align 8
  %24 = getelementptr inbounds %struct.GenContext_, ptr %23, i32 0, i32 5
  %25 = load ptr, ptr %24, align 8
  %26 = load i32, ptr %8, align 4
  %27 = load ptr, ptr %9, align 8
  %28 = load i32, ptr %10, align 4
  %29 = zext i32 %28 to i64
  %30 = call ptr @LLVMIntrinsicGetType(ptr noundef %25, i32 noundef %26, ptr noundef %27, i64 noundef %29)
  store ptr %30, ptr %14, align 8
  %31 = load ptr, ptr %7, align 8
  %32 = getelementptr inbounds %struct.GenContext_, ptr %31, i32 0, i32 8
  %33 = load ptr, ptr %32, align 8
  %34 = load ptr, ptr %14, align 8
  %35 = load ptr, ptr %13, align 8
  %36 = load ptr, ptr %11, align 8
  %37 = load i32, ptr %12, align 4
  %38 = call ptr @LLVMBuildCall2(ptr noundef %33, ptr noundef %34, ptr noundef %35, ptr noundef %36, i32 noundef %37, ptr noundef @.str.3)
  ret ptr %38
}

; Function Attrs: nounwind uwtable
define dso_local ptr @llvm_emit_expect_raw(ptr noundef %0, ptr noundef %1) #0 {
  %3 = alloca ptr, align 8
  %4 = alloca ptr, align 8
  %5 = alloca [2 x ptr], align 16
  store ptr %0, ptr %3, align 8
  store ptr %1, ptr %4, align 8
  %6 = getelementptr inbounds [2 x ptr], ptr %5, i64 0, i64 0
  %7 = load ptr, ptr %4, align 8
  store ptr %7, ptr %6, align 8
  %8 = getelementptr inbounds ptr, ptr %6, i64 1
  %9 = load ptr, ptr %3, align 8
  %10 = getelementptr inbounds %struct.GenContext_, ptr %9, i32 0, i32 20
  %11 = load ptr, ptr %10, align 8
  %12 = call ptr @LLVMConstInt(ptr noundef %11, i64 noundef 1, i32 noundef 0)
  store ptr %12, ptr %8, align 8
  %13 = load ptr, ptr %3, align 8
  %14 = load i32, ptr getelementptr inbounds (%struct.LLVMIntrinsics, ptr @intrinsic_id, i32 0, i32 14), align 4
  %15 = load ptr, ptr %3, align 8
  %16 = getelementptr inbounds %struct.GenContext_, ptr %15, i32 0, i32 20
  %17 = getelementptr inbounds [2 x ptr], ptr %5, i64 0, i64 0
  %18 = call ptr @llvm_emit_call_intrinsic(ptr noundef %13, i32 noundef %14, ptr noundef %16, i32 noundef 1, ptr noundef %17, i32 noundef 2)
  ret ptr %18
}