; Function Attrs: nounwind uwtable
define dso_local ptr @llvm_emit_expect_raw(ptr noundef %0, ptr noundef %1) local_unnamed_addr #0 {
  %3 = alloca [2 x ptr], align 16
  store ptr %1, ptr %3, align 16
  %4 = getelementptr inbounds i8, ptr %3, i64 8
  %5 = getelementptr inbounds i8, ptr %0, i64 160
  %6 = load ptr, ptr %5, align 8
  %7 = tail call ptr @LLVMConstInt(ptr noundef %6, i64 noundef 1, i32 noundef 0) #10
  store ptr %7, ptr %4, align 8
  %8 = load i32, ptr getelementptr inbounds (%struct.LLVMIntrinsics, ptr @intrinsic_id, i64 0, i32 14), align 4
  %9 = getelementptr inbounds i8, ptr %0, i64 8
  %10 = load ptr, ptr %9, align 8
  %11 = tail call ptr @LLVMGetIntrinsicDeclaration(ptr noundef %10, i32 noundef %8, ptr noundef nonnull %5, i64 noundef 1) #10
  %12 = getelementptr inbounds i8, ptr %0, i64 40
  %13 = load ptr, ptr %12, align 8
  %14 = tail call ptr @LLVMIntrinsicGetType(ptr noundef %13, i32 noundef %8, ptr noundef nonnull %5, i64 noundef 1) #10
  %15 = getelementptr inbounds i8, ptr %0, i64 64
  %16 = load ptr, ptr %15, align 8
  %17 = call ptr @LLVMBuildCall2(ptr noundef %16, ptr noundef %14, ptr noundef %11, ptr noundef nonnull %3, i32 noundef 2, ptr noundef nonnull @.str.3) #10
  ret ptr %17
}